ARM GAS  C:\Users\twmur\AppData\Local\Temp\cc1Fq75W.s 			page 1


   1              		.syntax unified
   2              		.cpu cortex-m0
   3              		.fpu softvfp
   4              		.eabi_attribute 20, 1
   5              		.eabi_attribute 21, 1
   6              		.eabi_attribute 23, 3
   7              		.eabi_attribute 24, 1
   8              		.eabi_attribute 25, 1
   9              		.eabi_attribute 26, 1
  10              		.eabi_attribute 30, 6
  11              		.eabi_attribute 34, 0
  12              		.eabi_attribute 18, 4
  13              		.thumb
  14              		.syntax unified
  15              		.file	"main.c"
  16              		.text
  17              	.Ltext0:
  18              		.cfi_sections	.debug_frame
  19              		.global	state_ram
  20              		.section	.rodata
  21              		.align	2
  22              		.type	state_ram, %object
  23              		.size	state_ram, 180
  24              	state_ram:
  25 0000 0000     		.short	0
  26 0002 40       		.byte	64
  27 0003 09       		.byte	9
  28 0004 21       		.byte	33
  29 0005 FB       		.byte	-5
  30 0006 0100     		.short	1
  31 0008 54       		.byte	84
  32 0009 0F       		.byte	15
  33 000a D0       		.byte	-48
  34 000b C2       		.byte	-62
  35 000c 0200     		.short	2
  36 000e 40       		.byte	64
  37 000f 0C       		.byte	12
  38 0010 C4       		.byte	-60
  39 0011 E3       		.byte	-29
  40 0012 0300     		.short	3
  41 0014 0F       		.byte	15
  42 0015 BC       		.byte	-68
  43 0016 6A       		.byte	106
  44 0017 7E       		.byte	126
  45 0018 00000000 		.space	156
  45      00000000 
  45      00000000 
  45      00000000 
  45      00000000 
  46              		.global	attribute_ram
  47              		.align	2
  48              		.type	attribute_ram, %object
  49              		.size	attribute_ram, 12
  50              	attribute_ram:
  51 00b4 0004     		.short	1024
  52 00b6 12       		.byte	18
  53 00b7 34       		.byte	52
ARM GAS  C:\Users\twmur\AppData\Local\Temp\cc1Fq75W.s 			page 2


  54 00b8 0104     		.short	1025
  55 00ba 56       		.byte	86
  56 00bb 78       		.byte	120
  57 00bc 0204     		.short	1026
  58 00be 9A       		.byte	-102
  59 00bf BC       		.byte	-68
  60              		.section	.text.main,"ax",%progbits
  61              		.align	2
  62              		.global	main
  63              		.code	16
  64              		.thumb_func
  65              		.type	main, %function
  66              	main:
  67              	.LFB35:
  68              		.file 1 "main.c"
   1:main.c        **** #include "project.h"
   2:main.c        **** #include "outfile.h"  // Includes pre-generated data arrays
   3:main.c        **** 
   4:main.c        **** #define NUM_STATE_ENTRIES (NUM_BODIES * 10)  // Each body has 5 doubles, split into 10 parts
   5:main.c        **** #define NUM_ATTR_ENTRIES (NUM_BODIES)        // Each body has 1 attribute entry
   6:main.c        **** 
   7:main.c        **** // Handshaking signal pins
   8:main.c        **** #define PSOC_FPGA_Write(x) Pin_PSOC_FPGA_Write(x)  // PSoC signals "I sent data"
   9:main.c        **** #define FPGA_PSOC_Read() Pin_FPGA_PSOC_Read()      // FPGA responds "I received data"
  10:main.c        **** #define BUTTON_Read() Pin_Button_Read()            // Button input for stepping
  11:main.c        **** 
  12:main.c        **** // 8-bit Data Output Port (8 LEDs represent one byte)
  13:main.c        **** #define DATA_PORT_Write(x) Data_Port_Write(x)  
  14:main.c        **** 
  15:main.c        **** uint8_t send_byte(uint16_t address, uint8_t data_byte);
  16:main.c        **** 
  17:main.c        **** int main(void)
  18:main.c        **** {
  69              		.loc 1 18 0
  70              		.cfi_startproc
  71              		@ args = 0, pretend = 0, frame = 32
  72              		@ frame_needed = 1, uses_anonymous_args = 0
  73 0000 80B5     		push	{r7, lr}
  74              		.cfi_def_cfa_offset 8
  75              		.cfi_offset 7, -8
  76              		.cfi_offset 14, -4
  77 0002 88B0     		sub	sp, sp, #32
  78              		.cfi_def_cfa_offset 40
  79 0004 00AF     		add	r7, sp, #0
  80              		.cfi_def_cfa_register 7
  19:main.c        ****     CyGlobalIntEnable;  // Enable global interrupts
  81              		.loc 1 19 0
  82              		.syntax divided
  83              	@ 19 "main.c" 1
  84 0006 62B6     		CPSIE   i
  85              	@ 0 "" 2
  20:main.c        **** 
  21:main.c        ****     // Initialize handshaking signal
  22:main.c        ****     PSOC_FPGA_Write(0);  // Start with handshake low
  86              		.loc 1 22 0
  87              		.thumb
  88              		.syntax unified
ARM GAS  C:\Users\twmur\AppData\Local\Temp\cc1Fq75W.s 			page 3


  89 0008 0020     		movs	r0, #0
  90 000a FFF7FEFF 		bl	Pin_PSOC_FPGA_Write
  91              	.LBB2:
  23:main.c        **** 
  24:main.c        ****     for (int i = 0; i < NUM_STATE_ENTRIES; i++) {
  92              		.loc 1 24 0
  93 000e 0023     		movs	r3, #0
  94 0010 FB61     		str	r3, [r7, #28]
  95 0012 54E0     		b	.L2
  96              	.L11:
  97              	.LBB3:
  25:main.c        ****         for (int j = 0; j < 2; j++) {  // Send both address bytes (LSB first)
  98              		.loc 1 25 0
  99 0014 0023     		movs	r3, #0
 100 0016 BB61     		str	r3, [r7, #24]
 101 0018 2AE0     		b	.L3
 102              	.L7:
 103              	.LBB4:
  26:main.c        ****             uint8_t addr_byte = (j == 0) ? (state_ram[i].address & 0xFF) : (state_ram[i].address >>
 104              		.loc 1 26 0
 105 001a BB69     		ldr	r3, [r7, #24]
 106 001c 002B     		cmp	r3, #0
 107 001e 08D1     		bne	.L4
 108              		.loc 1 26 0 is_stmt 0 discriminator 1
 109 0020 4F49     		ldr	r1, .L23
 110 0022 FA69     		ldr	r2, [r7, #28]
 111 0024 1300     		movs	r3, r2
 112 0026 5B00     		lsls	r3, r3, #1
 113 0028 9B18     		adds	r3, r3, r2
 114 002a 5B00     		lsls	r3, r3, #1
 115 002c 5B5A     		ldrh	r3, [r3, r1]
 116 002e DBB2     		uxtb	r3, r3
 117 0030 09E0     		b	.L5
 118              	.L4:
 119              		.loc 1 26 0 discriminator 2
 120 0032 4B49     		ldr	r1, .L23
 121 0034 FA69     		ldr	r2, [r7, #28]
 122 0036 1300     		movs	r3, r2
 123 0038 5B00     		lsls	r3, r3, #1
 124 003a 9B18     		adds	r3, r3, r2
 125 003c 5B00     		lsls	r3, r3, #1
 126 003e 5B5A     		ldrh	r3, [r3, r1]
 127 0040 1B0A     		lsrs	r3, r3, #8
 128 0042 9BB2     		uxth	r3, r3
 129 0044 DBB2     		uxtb	r3, r3
 130              	.L5:
 131              		.loc 1 26 0 discriminator 4
 132 0046 FA1D     		adds	r2, r7, #7
 133 0048 1370     		strb	r3, [r2]
  27:main.c        ****             while (!send_byte(state_ram[i].address, addr_byte));  // Wait for button press & handsh
 134              		.loc 1 27 0 is_stmt 1 discriminator 4
 135 004a C046     		nop
 136              	.L6:
 137              		.loc 1 27 0 is_stmt 0 discriminator 1
 138 004c 4449     		ldr	r1, .L23
 139 004e FA69     		ldr	r2, [r7, #28]
 140 0050 1300     		movs	r3, r2
ARM GAS  C:\Users\twmur\AppData\Local\Temp\cc1Fq75W.s 			page 4


 141 0052 5B00     		lsls	r3, r3, #1
 142 0054 9B18     		adds	r3, r3, r2
 143 0056 5B00     		lsls	r3, r3, #1
 144 0058 5A5A     		ldrh	r2, [r3, r1]
 145 005a FB1D     		adds	r3, r7, #7
 146 005c 1B78     		ldrb	r3, [r3]
 147 005e 1900     		movs	r1, r3
 148 0060 1000     		movs	r0, r2
 149 0062 FFF7FEFF 		bl	send_byte
 150 0066 031E     		subs	r3, r0, #0
 151 0068 F0D0     		beq	.L6
 152              	.LBE4:
  25:main.c        ****         for (int j = 0; j < 2; j++) {  // Send both address bytes (LSB first)
 153              		.loc 1 25 0 is_stmt 1 discriminator 2
 154 006a BB69     		ldr	r3, [r7, #24]
 155 006c 0133     		adds	r3, r3, #1
 156 006e BB61     		str	r3, [r7, #24]
 157              	.L3:
  25:main.c        ****         for (int j = 0; j < 2; j++) {  // Send both address bytes (LSB first)
 158              		.loc 1 25 0 is_stmt 0 discriminator 1
 159 0070 BB69     		ldr	r3, [r7, #24]
 160 0072 012B     		cmp	r3, #1
 161 0074 D1DD     		ble	.L7
 162              	.LBE3:
 163              	.LBB5:
  28:main.c        ****         }
  29:main.c        ****         for (int k = 0; k < 4; k++) {  // Send 4-byte data chunk
 164              		.loc 1 29 0 is_stmt 1
 165 0076 0023     		movs	r3, #0
 166 0078 7B61     		str	r3, [r7, #20]
 167 007a 1AE0     		b	.L8
 168              	.L10:
  30:main.c        ****             while (!send_byte(state_ram[i].address, state_ram[i].data[k]));
 169              		.loc 1 30 0
 170 007c C046     		nop
 171              	.L9:
 172              		.loc 1 30 0 is_stmt 0 discriminator 1
 173 007e 3849     		ldr	r1, .L23
 174 0080 FA69     		ldr	r2, [r7, #28]
 175 0082 1300     		movs	r3, r2
 176 0084 5B00     		lsls	r3, r3, #1
 177 0086 9B18     		adds	r3, r3, r2
 178 0088 5B00     		lsls	r3, r3, #1
 179 008a 585A     		ldrh	r0, [r3, r1]
 180 008c 3449     		ldr	r1, .L23
 181 008e FA69     		ldr	r2, [r7, #28]
 182 0090 1300     		movs	r3, r2
 183 0092 5B00     		lsls	r3, r3, #1
 184 0094 9B18     		adds	r3, r3, r2
 185 0096 5B00     		lsls	r3, r3, #1
 186 0098 CA18     		adds	r2, r1, r3
 187 009a 7B69     		ldr	r3, [r7, #20]
 188 009c D318     		adds	r3, r2, r3
 189 009e 0233     		adds	r3, r3, #2
 190 00a0 1B78     		ldrb	r3, [r3]
 191 00a2 1900     		movs	r1, r3
 192 00a4 FFF7FEFF 		bl	send_byte
ARM GAS  C:\Users\twmur\AppData\Local\Temp\cc1Fq75W.s 			page 5


 193 00a8 031E     		subs	r3, r0, #0
 194 00aa E8D0     		beq	.L9
  29:main.c        ****             while (!send_byte(state_ram[i].address, state_ram[i].data[k]));
 195              		.loc 1 29 0 is_stmt 1 discriminator 2
 196 00ac 7B69     		ldr	r3, [r7, #20]
 197 00ae 0133     		adds	r3, r3, #1
 198 00b0 7B61     		str	r3, [r7, #20]
 199              	.L8:
  29:main.c        ****             while (!send_byte(state_ram[i].address, state_ram[i].data[k]));
 200              		.loc 1 29 0 is_stmt 0 discriminator 1
 201 00b2 7B69     		ldr	r3, [r7, #20]
 202 00b4 032B     		cmp	r3, #3
 203 00b6 E1DD     		ble	.L10
 204              	.LBE5:
  24:main.c        ****         for (int j = 0; j < 2; j++) {  // Send both address bytes (LSB first)
 205              		.loc 1 24 0 is_stmt 1 discriminator 2
 206 00b8 FB69     		ldr	r3, [r7, #28]
 207 00ba 0133     		adds	r3, r3, #1
 208 00bc FB61     		str	r3, [r7, #28]
 209              	.L2:
  24:main.c        ****         for (int j = 0; j < 2; j++) {  // Send both address bytes (LSB first)
 210              		.loc 1 24 0 is_stmt 0 discriminator 1
 211 00be FB69     		ldr	r3, [r7, #28]
 212 00c0 1D2B     		cmp	r3, #29
 213 00c2 A7DD     		ble	.L11
 214              	.LBE2:
 215              	.LBB6:
  31:main.c        ****         }
  32:main.c        ****     }
  33:main.c        **** 
  34:main.c        ****     for (int i = 0; i < NUM_ATTR_ENTRIES; i++) {
 216              		.loc 1 34 0 is_stmt 1
 217 00c4 0023     		movs	r3, #0
 218 00c6 3B61     		str	r3, [r7, #16]
 219 00c8 45E0     		b	.L12
 220              	.L21:
 221              	.LBB7:
  35:main.c        ****         for (int j = 0; j < 2; j++) {  // Send both address bytes (LSB first)
 222              		.loc 1 35 0
 223 00ca 0023     		movs	r3, #0
 224 00cc FB60     		str	r3, [r7, #12]
 225 00ce 21E0     		b	.L13
 226              	.L17:
 227              	.LBB8:
  36:main.c        ****             uint8_t addr_byte = (j == 0) ? (attribute_ram[i].address & 0xFF) : (attribute_ram[i].ad
 228              		.loc 1 36 0
 229 00d0 FB68     		ldr	r3, [r7, #12]
 230 00d2 002B     		cmp	r3, #0
 231 00d4 05D1     		bne	.L14
 232              		.loc 1 36 0 is_stmt 0 discriminator 1
 233 00d6 234B     		ldr	r3, .L23+4
 234 00d8 3A69     		ldr	r2, [r7, #16]
 235 00da 9200     		lsls	r2, r2, #2
 236 00dc D35A     		ldrh	r3, [r2, r3]
 237 00de DBB2     		uxtb	r3, r3
 238 00e0 06E0     		b	.L15
 239              	.L14:
ARM GAS  C:\Users\twmur\AppData\Local\Temp\cc1Fq75W.s 			page 6


 240              		.loc 1 36 0 discriminator 2
 241 00e2 204B     		ldr	r3, .L23+4
 242 00e4 3A69     		ldr	r2, [r7, #16]
 243 00e6 9200     		lsls	r2, r2, #2
 244 00e8 D35A     		ldrh	r3, [r2, r3]
 245 00ea 1B0A     		lsrs	r3, r3, #8
 246 00ec 9BB2     		uxth	r3, r3
 247 00ee DBB2     		uxtb	r3, r3
 248              	.L15:
 249              		.loc 1 36 0 discriminator 4
 250 00f0 BA1D     		adds	r2, r7, #6
 251 00f2 1370     		strb	r3, [r2]
  37:main.c        ****             while (!send_byte(attribute_ram[i].address, addr_byte));
 252              		.loc 1 37 0 is_stmt 1 discriminator 4
 253 00f4 C046     		nop
 254              	.L16:
 255              		.loc 1 37 0 is_stmt 0 discriminator 1
 256 00f6 1B4B     		ldr	r3, .L23+4
 257 00f8 3A69     		ldr	r2, [r7, #16]
 258 00fa 9200     		lsls	r2, r2, #2
 259 00fc D25A     		ldrh	r2, [r2, r3]
 260 00fe BB1D     		adds	r3, r7, #6
 261 0100 1B78     		ldrb	r3, [r3]
 262 0102 1900     		movs	r1, r3
 263 0104 1000     		movs	r0, r2
 264 0106 FFF7FEFF 		bl	send_byte
 265 010a 031E     		subs	r3, r0, #0
 266 010c F3D0     		beq	.L16
 267              	.LBE8:
  35:main.c        ****         for (int j = 0; j < 2; j++) {  // Send both address bytes (LSB first)
 268              		.loc 1 35 0 is_stmt 1 discriminator 2
 269 010e FB68     		ldr	r3, [r7, #12]
 270 0110 0133     		adds	r3, r3, #1
 271 0112 FB60     		str	r3, [r7, #12]
 272              	.L13:
  35:main.c        ****         for (int j = 0; j < 2; j++) {  // Send both address bytes (LSB first)
 273              		.loc 1 35 0 is_stmt 0 discriminator 1
 274 0114 FB68     		ldr	r3, [r7, #12]
 275 0116 012B     		cmp	r3, #1
 276 0118 DADD     		ble	.L17
 277              	.LBE7:
 278              	.LBB9:
  38:main.c        ****         }
  39:main.c        ****         for (int k = 0; k < 2; k++) {  // Send 2-byte packed attribute data
 279              		.loc 1 39 0 is_stmt 1
 280 011a 0023     		movs	r3, #0
 281 011c BB60     		str	r3, [r7, #8]
 282 011e 14E0     		b	.L18
 283              	.L20:
  40:main.c        ****             while (!send_byte(attribute_ram[i].address, attribute_ram[i].data[k]));
 284              		.loc 1 40 0
 285 0120 C046     		nop
 286              	.L19:
 287              		.loc 1 40 0 is_stmt 0 discriminator 1
 288 0122 104B     		ldr	r3, .L23+4
 289 0124 3A69     		ldr	r2, [r7, #16]
 290 0126 9200     		lsls	r2, r2, #2
ARM GAS  C:\Users\twmur\AppData\Local\Temp\cc1Fq75W.s 			page 7


 291 0128 D05A     		ldrh	r0, [r2, r3]
 292 012a 0E4A     		ldr	r2, .L23+4
 293 012c 3B69     		ldr	r3, [r7, #16]
 294 012e 9B00     		lsls	r3, r3, #2
 295 0130 D218     		adds	r2, r2, r3
 296 0132 BB68     		ldr	r3, [r7, #8]
 297 0134 D318     		adds	r3, r2, r3
 298 0136 0233     		adds	r3, r3, #2
 299 0138 1B78     		ldrb	r3, [r3]
 300 013a 1900     		movs	r1, r3
 301 013c FFF7FEFF 		bl	send_byte
 302 0140 031E     		subs	r3, r0, #0
 303 0142 EED0     		beq	.L19
  39:main.c        ****             while (!send_byte(attribute_ram[i].address, attribute_ram[i].data[k]));
 304              		.loc 1 39 0 is_stmt 1 discriminator 2
 305 0144 BB68     		ldr	r3, [r7, #8]
 306 0146 0133     		adds	r3, r3, #1
 307 0148 BB60     		str	r3, [r7, #8]
 308              	.L18:
  39:main.c        ****             while (!send_byte(attribute_ram[i].address, attribute_ram[i].data[k]));
 309              		.loc 1 39 0 is_stmt 0 discriminator 1
 310 014a BB68     		ldr	r3, [r7, #8]
 311 014c 012B     		cmp	r3, #1
 312 014e E7DD     		ble	.L20
 313              	.LBE9:
  34:main.c        ****         for (int j = 0; j < 2; j++) {  // Send both address bytes (LSB first)
 314              		.loc 1 34 0 is_stmt 1 discriminator 2
 315 0150 3B69     		ldr	r3, [r7, #16]
 316 0152 0133     		adds	r3, r3, #1
 317 0154 3B61     		str	r3, [r7, #16]
 318              	.L12:
  34:main.c        ****         for (int j = 0; j < 2; j++) {  // Send both address bytes (LSB first)
 319              		.loc 1 34 0 is_stmt 0 discriminator 1
 320 0156 3B69     		ldr	r3, [r7, #16]
 321 0158 022B     		cmp	r3, #2
 322 015a B6DD     		ble	.L21
 323              	.L22:
 324              	.LBE6:
  41:main.c        ****         }
  42:main.c        ****     }
  43:main.c        **** 
  44:main.c        ****     for (;;) { /* Infinite loop after transmission */ }
 325              		.loc 1 44 0 is_stmt 1 discriminator 1
 326 015c FEE7     		b	.L22
 327              	.L24:
 328 015e C046     		.align	2
 329              	.L23:
 330 0160 00000000 		.word	state_ram
 331 0164 00000000 		.word	attribute_ram
 332              		.cfi_endproc
 333              	.LFE35:
 334              		.size	main, .-main
 335              		.section	.text.send_byte,"ax",%progbits
 336              		.align	2
 337              		.global	send_byte
 338              		.code	16
 339              		.thumb_func
ARM GAS  C:\Users\twmur\AppData\Local\Temp\cc1Fq75W.s 			page 8


 340              		.type	send_byte, %function
 341              	send_byte:
 342              	.LFB36:
  45:main.c        **** }
  46:main.c        **** 
  47:main.c        **** // **Function: Send one byte and wait for button press & handshake toggle**
  48:main.c        **** uint8_t send_byte(uint16_t address, uint8_t data_byte) {
 343              		.loc 1 48 0
 344              		.cfi_startproc
 345              		@ args = 0, pretend = 0, frame = 8
 346              		@ frame_needed = 1, uses_anonymous_args = 0
 347 0000 90B5     		push	{r4, r7, lr}
 348              		.cfi_def_cfa_offset 12
 349              		.cfi_offset 4, -12
 350              		.cfi_offset 7, -8
 351              		.cfi_offset 14, -4
 352 0002 83B0     		sub	sp, sp, #12
 353              		.cfi_def_cfa_offset 24
 354 0004 00AF     		add	r7, sp, #0
 355              		.cfi_def_cfa_register 7
 356 0006 0200     		movs	r2, r0
 357 0008 BB1D     		adds	r3, r7, #6
 358 000a 1A80     		strh	r2, [r3]
 359 000c 7B1D     		adds	r3, r7, #5
 360 000e 0A1C     		adds	r2, r1, #0
 361 0010 1A70     		strb	r2, [r3]
 362              	.LBB10:
  49:main.c        ****     // **Step 1: Wait for Button Press**
  50:main.c        ****     while (BUTTON_Read() == 1);  // Wait for button press
 363              		.loc 1 50 0
 364 0012 C046     		nop
 365              	.L26:
 366              		.loc 1 50 0 is_stmt 0 discriminator 1
 367 0014 FFF7FEFF 		bl	Pin_Button_Read
 368 0018 0300     		movs	r3, r0
 369 001a 012B     		cmp	r3, #1
 370 001c FAD0     		beq	.L26
 371              	.LBE10:
  51:main.c        ****     CyDelay(50);  // Debounce
 372              		.loc 1 51 0 is_stmt 1
 373 001e 3220     		movs	r0, #50
 374 0020 FFF7FEFF 		bl	CyDelay
 375              	.LBB11:
  52:main.c        ****     while (BUTTON_Read() == 0);  // Wait for button release
 376              		.loc 1 52 0
 377 0024 C046     		nop
 378              	.L27:
 379              		.loc 1 52 0 is_stmt 0 discriminator 1
 380 0026 FFF7FEFF 		bl	Pin_Button_Read
 381 002a 031E     		subs	r3, r0, #0
 382 002c FBD0     		beq	.L27
 383              	.LBE11:
  53:main.c        **** 
  54:main.c        ****     // **Step 2: Send Data**
  55:main.c        ****     DATA_PORT_Write(data_byte);  // Output the byte
 384              		.loc 1 55 0 is_stmt 1
 385 002e 7B1D     		adds	r3, r7, #5
ARM GAS  C:\Users\twmur\AppData\Local\Temp\cc1Fq75W.s 			page 9


 386 0030 1B78     		ldrb	r3, [r3]
 387 0032 1800     		movs	r0, r3
 388 0034 FFF7FEFF 		bl	Data_Port_Write
  56:main.c        **** 
  57:main.c        ****     // **Step 3: Toggle Handshake**
  58:main.c        ****     PSOC_FPGA_Write(!PSOC_FPGA_Read());  // Toggle handshake line
 389              		.loc 1 58 0
 390 0038 FFF7FEFF 		bl	PSOC_FPGA_Read
 391 003c 0300     		movs	r3, r0
 392 003e 5A42     		rsbs	r2, r3, #0
 393 0040 5341     		adcs	r3, r3, r2
 394 0042 DBB2     		uxtb	r3, r3
 395 0044 1800     		movs	r0, r3
 396 0046 FFF7FEFF 		bl	Pin_PSOC_FPGA_Write
 397              	.LBB12:
  59:main.c        **** 
  60:main.c        ****     // **Step 4: Wait for FPGA Response**
  61:main.c        ****     while (FPGA_PSOC_Read() != PSOC_FPGA_Read());  // Wait for FPGA to match handshake
 398              		.loc 1 61 0
 399 004a C046     		nop
 400              	.L28:
 401              		.loc 1 61 0 is_stmt 0 discriminator 1
 402 004c FFF7FEFF 		bl	Pin_FPGA_PSOC_Read
 403 0050 0400     		movs	r4, r0
 404 0052 FFF7FEFF 		bl	PSOC_FPGA_Read
 405 0056 0300     		movs	r3, r0
 406 0058 9C42     		cmp	r4, r3
 407 005a F7D1     		bne	.L28
 408              	.LBE12:
  62:main.c        **** 
  63:main.c        ****     return 1;  // Indicate success
 409              		.loc 1 63 0 is_stmt 1
 410 005c 0123     		movs	r3, #1
  64:main.c        **** }
 411              		.loc 1 64 0
 412 005e 1800     		movs	r0, r3
 413 0060 BD46     		mov	sp, r7
 414 0062 03B0     		add	sp, sp, #12
 415              		@ sp needed
 416 0064 90BD     		pop	{r4, r7, pc}
 417              		.cfi_endproc
 418              	.LFE36:
 419              		.size	send_byte, .-send_byte
 420 0066 C046     		.text
 421              	.Letext0:
 422              		.file 2 "c:\\program files (x86)\\cypress\\psoc creator\\4.4\\psoc creator\\import\\gnu\\arm\\5.4.
 423              		.file 3 "c:\\program files (x86)\\cypress\\psoc creator\\4.4\\psoc creator\\import\\gnu\\arm\\5.4.
 424              		.file 4 "outfile.h"