ARM GAS  C:\Users\twmur\AppData\Local\Temp\ccXEjo8P.s 			page 1


   1              		.syntax unified
   2              		.cpu cortex-m3
   3              		.fpu softvfp
   4              		.eabi_attribute 20, 1
   5              		.eabi_attribute 21, 1
   6              		.eabi_attribute 23, 3
   7              		.eabi_attribute 24, 1
   8              		.eabi_attribute 25, 1
   9              		.eabi_attribute 26, 1
  10              		.eabi_attribute 30, 1
  11              		.eabi_attribute 34, 1
  12              		.eabi_attribute 18, 4
  13              		.thumb
  14              		.syntax unified
  15              		.file	"main.c"
  16              		.text
  17              	.Ltext0:
  18              		.cfi_sections	.debug_frame
  19              		.section	.text.Button_ISR,"ax",%progbits
  20              		.align	2
  21              		.global	Button_ISR
  22              		.thumb
  23              		.thumb_func
  24              		.type	Button_ISR, %function
  25              	Button_ISR:
  26              	.LFB64:
  27              		.file 1 "main.c"
   1:main.c        **** #include "project.h"
   2:main.c        **** #include "outfile.h"  // Includes pre-generated data arrays
   3:main.c        **** 
   4:main.c        **** #define DEBOUNCE_DELAY_MS 50  // Adjust debounce time as needed
   5:main.c        **** 
   6:main.c        **** // Button & Data Port Definitions
   7:main.c        **** #define BUTTON_Read() Button_Read()  // Button input for stepping
   8:main.c        **** #define DATA_PORT_Write(x) Data_Port_Write(x)  // 8-bit Data Output Port
   9:main.c        **** 
  10:main.c        **** volatile uint8_t button_pressed = 0;  // Flag to track button press
  11:main.c        **** uint16_t data_index = 0;  // Tracks which byte is being sent
  12:main.c        **** 
  13:main.c        **** CY_ISR_PROTO(Button_ISR);
  14:main.c        **** void send_next_byte(void);
  15:main.c        **** 
  16:main.c        **** int main(void) {
  17:main.c        ****     CyGlobalIntEnable;  // Enable global interrupts
  18:main.c        **** 
  19:main.c        ****     // Attach ISR to button
  20:main.c        ****     isr_Button_StartEx(Button_ISR);
  21:main.c        **** 
  22:main.c        ****     // **Ensure first address byte is sent at startup**
  23:main.c        ****     send_next_byte();
  24:main.c        **** 
  25:main.c        ****     for (;;) {  // Infinite loop waiting for button presses
  26:main.c        ****         if (button_pressed) {  
  27:main.c        ****             button_pressed = 0;  // Reset button flag
  28:main.c        ****             send_next_byte();  // Send next byte
  29:main.c        ****         }
  30:main.c        ****     }
ARM GAS  C:\Users\twmur\AppData\Local\Temp\ccXEjo8P.s 			page 2


  31:main.c        **** }
  32:main.c        **** 
  33:main.c        **** // **ISR for Button Press with Debouncing**
  34:main.c        **** CY_ISR(Button_ISR) {
  28              		.loc 1 34 0
  29              		.cfi_startproc
  30              		@ args = 0, pretend = 0, frame = 0
  31              		@ frame_needed = 0, uses_anonymous_args = 0
  32 0000 08B5     		push	{r3, lr}
  33              		.cfi_def_cfa_offset 8
  34              		.cfi_offset 3, -8
  35              		.cfi_offset 14, -4
  35:main.c        ****     CyDelay(DEBOUNCE_DELAY_MS);  // Debounce delay
  36              		.loc 1 35 0
  37 0002 3220     		movs	r0, #50
  38 0004 FFF7FEFF 		bl	CyDelay
  39              	.LVL0:
  36:main.c        ****     if (BUTTON_Read() == 0) {  // Confirm button is still pressed
  40              		.loc 1 36 0
  41 0008 FFF7FEFF 		bl	Button_Read
  42              	.LVL1:
  43 000c 10B9     		cbnz	r0, .L2
  37:main.c        ****         button_pressed = 1;
  44              		.loc 1 37 0
  45 000e 0122     		movs	r2, #1
  46 0010 024B     		ldr	r3, .L4
  47 0012 1A70     		strb	r2, [r3]
  48              	.L2:
  38:main.c        ****     }
  39:main.c        ****     Button_ClearInterrupt();  // Clear interrupt flag
  49              		.loc 1 39 0
  50 0014 FFF7FEFF 		bl	Button_ClearInterrupt
  51              	.LVL2:
  52 0018 08BD     		pop	{r3, pc}
  53              	.L5:
  54 001a 00BF     		.align	2
  55              	.L4:
  56 001c 00000000 		.word	.LANCHOR0
  57              		.cfi_endproc
  58              	.LFE64:
  59              		.size	Button_ISR, .-Button_ISR
  60              		.section	.text.send_next_byte,"ax",%progbits
  61              		.align	2
  62              		.global	send_next_byte
  63              		.thumb
  64              		.thumb_func
  65              		.type	send_next_byte, %function
  66              	send_next_byte:
  67              	.LFB65:
  40:main.c        **** }
  41:main.c        **** 
  42:main.c        **** // **Function: Send next byte from `merged_ram[]`**
  43:main.c        **** void send_next_byte(void) {
  68              		.loc 1 43 0
  69              		.cfi_startproc
  70              		@ args = 0, pretend = 0, frame = 0
  71              		@ frame_needed = 0, uses_anonymous_args = 0
ARM GAS  C:\Users\twmur\AppData\Local\Temp\ccXEjo8P.s 			page 3


  72 0000 08B5     		push	{r3, lr}
  73              		.cfi_def_cfa_offset 8
  74              		.cfi_offset 3, -8
  75              		.cfi_offset 14, -4
  76              	.LVL3:
  44:main.c        ****     uint16_t total_bytes = sizeof(merged_ram) / sizeof(merged_ram[0]);  // Total entries
  45:main.c        **** 
  46:main.c        ****     if (data_index < total_bytes * 6) {  // 1 address + 4 data bytes per entry
  77              		.loc 1 46 0
  78 0002 194B     		ldr	r3, .L12
  79 0004 5B88     		ldrh	r3, [r3, #2]
  80 0006 832B     		cmp	r3, #131
  81 0008 2CDC     		bgt	.L6
  82              	.LBB2:
  47:main.c        ****         uint16_t entry_index = data_index / 6;  // Which `merged_ram` entry
  83              		.loc 1 47 0
  84 000a 184A     		ldr	r2, .L12+4
  85 000c A2FB0312 		umull	r1, r2, r2, r3
  86 0010 9208     		lsrs	r2, r2, #2
  87 0012 91B2     		uxth	r1, r2
  88              	.LVL4:
  48:main.c        ****         uint8_t byte_index = data_index % 6;  // Position in the entry
  89              		.loc 1 48 0
  90 0014 02EB4202 		add	r2, r2, r2, lsl #1
  91 0018 5000     		lsls	r0, r2, #1
  92 001a 1B1A     		subs	r3, r3, r0
  93              	.LVL5:
  49:main.c        **** 
  50:main.c        ****         if (byte_index == 0) {  
  94              		.loc 1 50 0
  95 001c 13F0FF03 		ands	r3, r3, #255
  96              	.LVL6:
  97 0020 07D1     		bne	.L8
  51:main.c        ****             DATA_PORT_Write(merged_ram[entry_index].address & 0xFF);  // Send Lower Address Byte
  98              		.loc 1 51 0
  99 0022 01EB4101 		add	r1, r1, r1, lsl #1
 100              	.LVL7:
 101 0026 4B00     		lsls	r3, r1, #1
 102 0028 114A     		ldr	r2, .L12+8
 103 002a D05C     		ldrb	r0, [r2, r3]	@ zero_extendqisi2
 104              	.LVL8:
 105 002c FFF7FEFF 		bl	Data_Port_Write
 106              	.LVL9:
 107 0030 14E0     		b	.L9
 108              	.LVL10:
 109              	.L8:
  52:main.c        ****         } 
  53:main.c        ****         else if (byte_index == 1) {  
 110              		.loc 1 53 0
 111 0032 012B     		cmp	r3, #1
 112 0034 08D1     		bne	.L10
  54:main.c        ****             DATA_PORT_Write(merged_ram[entry_index].address >> 8);  // Send Upper Address Byte
 113              		.loc 1 54 0
 114 0036 01EB4101 		add	r1, r1, r1, lsl #1
 115              	.LVL11:
 116 003a 4B00     		lsls	r3, r1, #1
 117 003c 0C4A     		ldr	r2, .L12+8
ARM GAS  C:\Users\twmur\AppData\Local\Temp\ccXEjo8P.s 			page 4


 118 003e D05A     		ldrh	r0, [r2, r3]
 119              	.LVL12:
 120 0040 000A     		lsrs	r0, r0, #8
 121 0042 FFF7FEFF 		bl	Data_Port_Write
 122              	.LVL13:
 123 0046 09E0     		b	.L9
 124              	.LVL14:
 125              	.L10:
  55:main.c        ****         } 
  56:main.c        ****         else {  
  57:main.c        ****             DATA_PORT_Write(merged_ram[entry_index].data[byte_index - 2]);  // Send Data Bytes
 126              		.loc 1 57 0
 127 0048 023B     		subs	r3, r3, #2
 128 004a 01EB4101 		add	r1, r1, r1, lsl #1
 129              	.LVL15:
 130 004e 4A00     		lsls	r2, r1, #1
 131 0050 0749     		ldr	r1, .L12+8
 132 0052 0A44     		add	r2, r2, r1
 133 0054 1344     		add	r3, r3, r2
 134 0056 9878     		ldrb	r0, [r3, #2]	@ zero_extendqisi2
 135              	.LVL16:
 136 0058 FFF7FEFF 		bl	Data_Port_Write
 137              	.LVL17:
 138              	.L9:
 139              	.LBE2:
  58:main.c        ****         }
  59:main.c        ****     } 
  60:main.c        ****     else {
  61:main.c        ****         return;  // **All Data Sent - Stop Transmission**
  62:main.c        ****     }
  63:main.c        **** 
  64:main.c        ****     // **Move to Next Byte**
  65:main.c        ****     data_index++;
 140              		.loc 1 65 0
 141 005c 024A     		ldr	r2, .L12
 142 005e 5388     		ldrh	r3, [r2, #2]
 143 0060 0133     		adds	r3, r3, #1
 144 0062 5380     		strh	r3, [r2, #2]	@ movhi
 145              	.L6:
 146 0064 08BD     		pop	{r3, pc}
 147              	.L13:
 148 0066 00BF     		.align	2
 149              	.L12:
 150 0068 00000000 		.word	.LANCHOR0
 151 006c ABAAAAAA 		.word	-1431655765
 152 0070 00000000 		.word	.LANCHOR1
 153              		.cfi_endproc
 154              	.LFE65:
 155              		.size	send_next_byte, .-send_next_byte
 156              		.section	.text.main,"ax",%progbits
 157              		.align	2
 158              		.global	main
 159              		.thumb
 160              		.thumb_func
 161              		.type	main, %function
 162              	main:
 163              	.LFB63:
ARM GAS  C:\Users\twmur\AppData\Local\Temp\ccXEjo8P.s 			page 5


  16:main.c        ****     CyGlobalIntEnable;  // Enable global interrupts
 164              		.loc 1 16 0
 165              		.cfi_startproc
 166              		@ Volatile: function does not return.
 167              		@ args = 0, pretend = 0, frame = 0
 168              		@ frame_needed = 0, uses_anonymous_args = 0
 169 0000 08B5     		push	{r3, lr}
 170              		.cfi_def_cfa_offset 8
 171              		.cfi_offset 3, -8
 172              		.cfi_offset 14, -4
  17:main.c        **** 
 173              		.loc 1 17 0
 174              		.syntax unified
 175              	@ 17 "main.c" 1
 176 0002 62B6     		CPSIE   i
 177              	@ 0 "" 2
  20:main.c        **** 
 178              		.loc 1 20 0
 179              		.thumb
 180              		.syntax unified
 181 0004 0748     		ldr	r0, .L18
 182 0006 FFF7FEFF 		bl	isr_Button_StartEx
 183              	.LVL18:
  23:main.c        **** 
 184              		.loc 1 23 0
 185 000a FFF7FEFF 		bl	send_next_byte
 186              	.LVL19:
 187              	.L15:
  26:main.c        ****             button_pressed = 0;  // Reset button flag
 188              		.loc 1 26 0
 189 000e 064B     		ldr	r3, .L18+4
 190 0010 1B78     		ldrb	r3, [r3]	@ zero_extendqisi2
 191 0012 13F0FF0F 		tst	r3, #255
 192 0016 FAD0     		beq	.L15
  27:main.c        ****             send_next_byte();  // Send next byte
 193              		.loc 1 27 0
 194 0018 0022     		movs	r2, #0
 195 001a 034B     		ldr	r3, .L18+4
 196 001c 1A70     		strb	r2, [r3]
  28:main.c        ****         }
 197              		.loc 1 28 0
 198 001e FFF7FEFF 		bl	send_next_byte
 199              	.LVL20:
 200 0022 F4E7     		b	.L15
 201              	.L19:
 202              		.align	2
 203              	.L18:
 204 0024 00000000 		.word	Button_ISR
 205 0028 00000000 		.word	.LANCHOR0
 206              		.cfi_endproc
 207              	.LFE63:
 208              		.size	main, .-main
 209              		.global	data_index
 210              		.global	button_pressed
 211              		.global	merged_ram
 212              		.section	.rodata
 213              		.align	2
ARM GAS  C:\Users\twmur\AppData\Local\Temp\ccXEjo8P.s 			page 6


 214              		.set	.LANCHOR1,. + 0
 215              		.type	merged_ram, %object
 216              		.size	merged_ram, 132
 217              	merged_ram:
 218 0000 0000     		.short	0
 219 0002 3F       		.byte	63
 220 0003 F3       		.byte	-13
 221 0004 AE       		.byte	-82
 222 0005 14       		.byte	20
 223 0006 0100     		.short	1
 224 0008 7A       		.byte	122
 225 0009 E1       		.byte	-31
 226 000a 47       		.byte	71
 227 000b AE       		.byte	-82
 228 000c 0200     		.short	2
 229 000e 40       		.byte	64
 230 000f 12       		.byte	18
 231 0010 3D       		.byte	61
 232 0011 70       		.byte	112
 233 0012 0300     		.short	3
 234 0014 A3       		.byte	-93
 235 0015 D7       		.byte	-41
 236 0016 0A       		.byte	10
 237 0017 3D       		.byte	61
 238 0018 0400     		.short	4
 239 001a BF       		.byte	-65
 240 001b E8       		.byte	-24
 241 001c F5       		.byte	-11
 242 001d C2       		.byte	-62
 243 001e 0500     		.short	5
 244 0020 8F       		.byte	-113
 245 0021 5C       		.byte	92
 246 0022 28       		.byte	40
 247 0023 F6       		.byte	-10
 248 0024 0600     		.short	6
 249 0026 40       		.byte	64
 250 0027 09       		.byte	9
 251 0028 1E       		.byte	30
 252 0029 B8       		.byte	-72
 253 002a 0700     		.short	7
 254 002c 51       		.byte	81
 255 002d EB       		.byte	-21
 256 002e 85       		.byte	-123
 257 002f 1F       		.byte	31
 258 0030 0800     		.short	8
 259 0032 40       		.byte	64
 260 0033 25       		.byte	37
 261 0034 00       		.byte	0
 262 0035 00       		.byte	0
 263 0036 0900     		.short	9
 264 0038 00       		.byte	0
 265 0039 00       		.byte	0
 266 003a 00       		.byte	0
 267 003b 00       		.byte	0
 268 003c 0004     		.short	1024
 269 003e 05       		.byte	5
 270 003f 72       		.byte	114
ARM GAS  C:\Users\twmur\AppData\Local\Temp\ccXEjo8P.s 			page 7


 271 0040 0000     		.space	2
 272 0042 0A00     		.short	10
 273 0044 40       		.byte	64
 274 0045 02       		.byte	2
 275 0046 B8       		.byte	-72
 276 0047 51       		.byte	81
 277 0048 0B00     		.short	11
 278 004a EB       		.byte	-21
 279 004b 85       		.byte	-123
 280 004c 1E       		.byte	30
 281 004d B8       		.byte	-72
 282 004e 0C00     		.short	12
 283 0050 40       		.byte	64
 284 0051 16       		.byte	22
 285 0052 AE       		.byte	-82
 286 0053 14       		.byte	20
 287 0054 0D00     		.short	13
 288 0056 7A       		.byte	122
 289 0057 E1       		.byte	-31
 290 0058 47       		.byte	71
 291 0059 AE       		.byte	-82
 292 005a 0E00     		.short	14
 293 005c 3F       		.byte	63
 294 005d BE       		.byte	-66
 295 005e B8       		.byte	-72
 296 005f 51       		.byte	81
 297 0060 0F00     		.short	15
 298 0062 EB       		.byte	-21
 299 0063 85       		.byte	-123
 300 0064 1E       		.byte	30
 301 0065 B8       		.byte	-72
 302 0066 1000     		.short	16
 303 0068 C0       		.byte	-64
 304 0069 03       		.byte	3
 305 006a 99       		.byte	-103
 306 006b 99       		.byte	-103
 307 006c 1100     		.short	17
 308 006e 99       		.byte	-103
 309 006f 99       		.byte	-103
 310 0070 99       		.byte	-103
 311 0071 9A       		.byte	-102
 312 0072 1200     		.short	18
 313 0074 40       		.byte	64
 314 0075 21       		.byte	33
 315 0076 CC       		.byte	-52
 316 0077 CC       		.byte	-52
 317 0078 1300     		.short	19
 318 007a CC       		.byte	-52
 319 007b CC       		.byte	-52
 320 007c CC       		.byte	-52
 321 007d CD       		.byte	-51
 322 007e 0104     		.short	1025
 323 0080 03       		.byte	3
 324 0081 61       		.byte	97
 325 0082 0000     		.space	2
 326              		.bss
 327              		.align	1
ARM GAS  C:\Users\twmur\AppData\Local\Temp\ccXEjo8P.s 			page 8


 328              		.set	.LANCHOR0,. + 0
 329              		.type	button_pressed, %object
 330              		.size	button_pressed, 1
 331              	button_pressed:
 332 0000 00       		.space	1
 333 0001 00       		.space	1
 334              		.type	data_index, %object
 335              		.size	data_index, 2
 336              	data_index:
 337 0002 0000     		.space	2
 338              		.text
 339              	.Letext0:
 340              		.file 2 "c:\\program files (x86)\\cypress\\psoc creator\\4.4\\psoc creator\\import\\gnu\\arm\\5.4.
 341              		.file 3 "c:\\program files (x86)\\cypress\\psoc creator\\4.4\\psoc creator\\import\\gnu\\arm\\5.4.
 342              		.file 4 "outfile.h"
 343              		.file 5 "Generated_Source\\PSoC5/core_cm3.h"
 344              		.file 6 "Generated_Source\\PSoC5/CyLib.h"
 345              		.file 7 "Generated_Source\\PSoC5/Button.h"
 346              		.file 8 "Generated_Source\\PSoC5/Data_Port.h"
 347              		.file 9 "Generated_Source\\PSoC5/isr_Button.h"