ARM GAS  C:\Users\impler\AppData\Local\Temp\ccMkb5iX.s 			page 1


   1              		.syntax unified
   2              		.cpu cortex-m3
   3              		.fpu softvfp
   4              		.eabi_attribute 20, 1
   5              		.eabi_attribute 21, 1
   6              		.eabi_attribute 23, 3
   7              		.eabi_attribute 24, 1
   8              		.eabi_attribute 25, 1
   9              		.eabi_attribute 26, 1
  10              		.eabi_attribute 30, 1
  11              		.eabi_attribute 34, 1
  12              		.eabi_attribute 18, 4
  13              		.thumb
  14              		.syntax unified
  15              		.file	"main.c"
  16              		.text
  17              	.Ltext0:
  18              		.cfi_sections	.debug_frame
  19              		.section	.text.send_next_byte,"ax",%progbits
  20              		.align	2
  21              		.global	send_next_byte
  22              		.thumb
  23              		.thumb_func
  24              		.type	send_next_byte, %function
  25              	send_next_byte:
  26              	.LFB64:
  27              		.file 1 "main.c"
   1:main.c        **** #include "project.h"
   2:main.c        **** #include "outfile.h"  // Includes pre-generated data arrays
   3:main.c        **** 
   4:main.c        **** // Handshake Signal Definitions
   5:main.c        **** #define PSOC_FPGA_Write(x) PSOC_FPGA_Write(x)  // PSoC signals "I sent data"
   6:main.c        **** #define FPGA_PSOC_Read() FPGA_PSOC_Read()      // FPGA signals "I received data"
   7:main.c        **** #define SOFT_RESET_Write(x) SOFT_RESET_Write(x)  // Soft reset signal to FPGA
   8:main.c        **** 
   9:main.c        **** // 8-bit Data Output Port
  10:main.c        **** #define DATA_PORT_Write(x) Data_Port_Write(x)  
  11:main.c        **** 
  12:main.c        **** uint16_t data_index = 0;  // Tracks which byte is being sent
  13:main.c        **** uint16_t total_entries = sizeof(merged_ram) / sizeof(merged_ram[0]);  // Total struct entries
  14:main.c        **** 
  15:main.c        **** void send_next_byte(void);
  16:main.c        **** 
  17:main.c        **** int main(void) {
  18:main.c        ****     CyGlobalIntEnable;  // Enable global interrupts
  19:main.c        **** 
  20:main.c        ****     // **Step 1: Assert Soft Reset to Reset FPGA**
  21:main.c        ****     SOFT_RESET_Write(1);  // Set soft reset HIGH
  22:main.c        ****     CyDelay(100);         // Wait 100ms for FPGA to reset
  23:main.c        ****     SOFT_RESET_Write(0);  // Clear soft reset before starting
  24:main.c        **** 
  25:main.c        ****     // **Step 2: Ensure first address byte is already present at startup**
  26:main.c        ****     send_next_byte();
  27:main.c        **** 
  28:main.c        ****     // **Step 3: Set initial handshake state to HIGH**
  29:main.c        ****     PSOC_FPGA_Write(1);  
  30:main.c        **** 
ARM GAS  C:\Users\impler\AppData\Local\Temp\ccMkb5iX.s 			page 2


  31:main.c        ****     for (;;) {  // Infinite loop waiting for FPGA handshakes
  32:main.c        ****         if (FPGA_PSOC_Read() == PSOC_FPGA_Read()) {  // FPGA matches handshake, ready for next byte
  33:main.c        ****             send_next_byte();  // Send next byte
  34:main.c        ****         }
  35:main.c        ****     }
  36:main.c        ****     while(1);
  37:main.c        **** }
  38:main.c        **** 
  39:main.c        **** // **Function: Send next byte from `merged_ram[]` using LSB → MSB**
  40:main.c        **** void send_next_byte(void) {
  28              		.loc 1 40 0
  29              		.cfi_startproc
  30              		@ args = 0, pretend = 0, frame = 0
  31              		@ frame_needed = 0, uses_anonymous_args = 0
  32 0000 08B5     		push	{r3, lr}
  33              		.cfi_def_cfa_offset 8
  34              		.cfi_offset 3, -8
  35              		.cfi_offset 14, -4
  41:main.c        ****     if (data_index < total_entries * 6) {  // Each entry has 2 address + 4 data bytes
  36              		.loc 1 41 0
  37 0002 204B     		ldr	r3, .L7
  38 0004 1B88     		ldrh	r3, [r3]
  39 0006 204A     		ldr	r2, .L7+4
  40 0008 1288     		ldrh	r2, [r2]
  41 000a 02EB4202 		add	r2, r2, r2, lsl #1
  42 000e 5100     		lsls	r1, r2, #1
  43 0010 8B42     		cmp	r3, r1
  44 0012 35DA     		bge	.L1
  45              	.LBB2:
  42:main.c        ****         uint16_t entry_index = data_index / 6;  // Which `merged_ram` entry
  46              		.loc 1 42 0
  47 0014 1D4A     		ldr	r2, .L7+8
  48 0016 A2FB0312 		umull	r1, r2, r2, r3
  49 001a 9208     		lsrs	r2, r2, #2
  50 001c 91B2     		uxth	r1, r2
  51              	.LVL0:
  43:main.c        ****         uint8_t byte_index = data_index % 6;  // Position in entry
  52              		.loc 1 43 0
  53 001e 02EB4202 		add	r2, r2, r2, lsl #1
  54 0022 5000     		lsls	r0, r2, #1
  55 0024 1B1A     		subs	r3, r3, r0
  56              	.LVL1:
  44:main.c        **** 
  45:main.c        ****         if (byte_index == 0) {  
  57              		.loc 1 45 0
  58 0026 13F0FF03 		ands	r3, r3, #255
  59              	.LVL2:
  60 002a 07D1     		bne	.L3
  46:main.c        ****             DATA_PORT_Write(merged_ram[entry_index].address & 0xFF);  // **Send Lower Address Byte 
  61              		.loc 1 46 0
  62 002c 01EB4101 		add	r1, r1, r1, lsl #1
  63              	.LVL3:
  64 0030 4B00     		lsls	r3, r1, #1
  65 0032 174A     		ldr	r2, .L7+12
  66 0034 D05C     		ldrb	r0, [r2, r3]	@ zero_extendqisi2
  67              	.LVL4:
  68 0036 FFF7FEFF 		bl	Data_Port_Write
ARM GAS  C:\Users\impler\AppData\Local\Temp\ccMkb5iX.s 			page 3


  69              	.LVL5:
  70 003a 16E0     		b	.L4
  71              	.LVL6:
  72              	.L3:
  47:main.c        ****         } 
  48:main.c        ****         else if (byte_index == 1) {  
  73              		.loc 1 48 0
  74 003c 012B     		cmp	r3, #1
  75 003e 08D1     		bne	.L5
  49:main.c        ****             DATA_PORT_Write((merged_ram[entry_index].address >> 8) & 0xFF);  // **Send Upper Addres
  76              		.loc 1 49 0
  77 0040 01EB4101 		add	r1, r1, r1, lsl #1
  78              	.LVL7:
  79 0044 4B00     		lsls	r3, r1, #1
  80 0046 124A     		ldr	r2, .L7+12
  81 0048 D05A     		ldrh	r0, [r2, r3]
  82              	.LVL8:
  83 004a 000A     		lsrs	r0, r0, #8
  84 004c FFF7FEFF 		bl	Data_Port_Write
  85              	.LVL9:
  86 0050 0BE0     		b	.L4
  87              	.LVL10:
  88              	.L5:
  89              	.LBB3:
  50:main.c        ****         } 
  51:main.c        ****         else {  
  52:main.c        ****             uint8_t reversed_index = 5 - byte_index;  // Reverse data byte order
  90              		.loc 1 52 0
  91 0052 C3F10503 		rsb	r3, r3, #5
  92 0056 DBB2     		uxtb	r3, r3
  93              	.LVL11:
  53:main.c        ****             DATA_PORT_Write(merged_ram[entry_index].data[reversed_index]);  // **Send Data Bytes (L
  94              		.loc 1 53 0
  95 0058 01EB4101 		add	r1, r1, r1, lsl #1
  96              	.LVL12:
  97 005c 4A00     		lsls	r2, r1, #1
  98 005e 0C49     		ldr	r1, .L7+12
  99 0060 0A44     		add	r2, r2, r1
 100 0062 1344     		add	r3, r3, r2
 101              	.LVL13:
 102 0064 9878     		ldrb	r0, [r3, #2]	@ zero_extendqisi2
 103              	.LVL14:
 104 0066 FFF7FEFF 		bl	Data_Port_Write
 105              	.LVL15:
 106              	.L4:
 107              	.LBE3:
  54:main.c        ****         }
  55:main.c        **** 
  56:main.c        ****         // **Toggle Handshake (Flip PSOC_FPGA)**
  57:main.c        ****         PSOC_FPGA_Write(!PSOC_FPGA_Read());  
 108              		.loc 1 57 0
 109 006a FFF7FEFF 		bl	PSOC_FPGA_Read
 110              	.LVL16:
 111 006e B0FA80F0 		clz	r0, r0
 112 0072 4009     		lsrs	r0, r0, #5
 113 0074 FFF7FEFF 		bl	PSOC_FPGA_Write
 114              	.LVL17:
ARM GAS  C:\Users\impler\AppData\Local\Temp\ccMkb5iX.s 			page 4


  58:main.c        **** 
  59:main.c        ****         // **Move to Next Byte**
  60:main.c        ****         data_index++;
 115              		.loc 1 60 0
 116 0078 024A     		ldr	r2, .L7
 117 007a 1388     		ldrh	r3, [r2]
 118 007c 0133     		adds	r3, r3, #1
 119 007e 1380     		strh	r3, [r2]	@ movhi
 120              	.L1:
 121 0080 08BD     		pop	{r3, pc}
 122              	.L8:
 123 0082 00BF     		.align	2
 124              	.L7:
 125 0084 00000000 		.word	.LANCHOR0
 126 0088 00000000 		.word	.LANCHOR1
 127 008c ABAAAAAA 		.word	-1431655765
 128 0090 00000000 		.word	.LANCHOR2
 129              	.LBE2:
 130              		.cfi_endproc
 131              	.LFE64:
 132              		.size	send_next_byte, .-send_next_byte
 133              		.section	.text.main,"ax",%progbits
 134              		.align	2
 135              		.global	main
 136              		.thumb
 137              		.thumb_func
 138              		.type	main, %function
 139              	main:
 140              	.LFB63:
  17:main.c        ****     CyGlobalIntEnable;  // Enable global interrupts
 141              		.loc 1 17 0
 142              		.cfi_startproc
 143              		@ Volatile: function does not return.
 144              		@ args = 0, pretend = 0, frame = 0
 145              		@ frame_needed = 0, uses_anonymous_args = 0
 146 0000 08B5     		push	{r3, lr}
 147              		.cfi_def_cfa_offset 8
 148              		.cfi_offset 3, -8
 149              		.cfi_offset 14, -4
  18:main.c        **** 
 150              		.loc 1 18 0
 151              		.syntax unified
 152              	@ 18 "main.c" 1
 153 0002 62B6     		CPSIE   i
 154              	@ 0 "" 2
  21:main.c        ****     CyDelay(100);         // Wait 100ms for FPGA to reset
 155              		.loc 1 21 0
 156              		.thumb
 157              		.syntax unified
 158 0004 0120     		movs	r0, #1
 159 0006 FFF7FEFF 		bl	SOFT_RESET_Write
 160              	.LVL18:
  22:main.c        ****     SOFT_RESET_Write(0);  // Clear soft reset before starting
 161              		.loc 1 22 0
 162 000a 6420     		movs	r0, #100
 163 000c FFF7FEFF 		bl	CyDelay
 164              	.LVL19:
ARM GAS  C:\Users\impler\AppData\Local\Temp\ccMkb5iX.s 			page 5


  23:main.c        **** 
 165              		.loc 1 23 0
 166 0010 0020     		movs	r0, #0
 167 0012 FFF7FEFF 		bl	SOFT_RESET_Write
 168              	.LVL20:
  26:main.c        **** 
 169              		.loc 1 26 0
 170 0016 FFF7FEFF 		bl	send_next_byte
 171              	.LVL21:
  29:main.c        **** 
 172              		.loc 1 29 0
 173 001a 0120     		movs	r0, #1
 174 001c FFF7FEFF 		bl	PSOC_FPGA_Write
 175              	.LVL22:
 176              	.L10:
  32:main.c        ****             send_next_byte();  // Send next byte
 177              		.loc 1 32 0
 178 0020 FFF7FEFF 		bl	FPGA_PSOC_Read
 179              	.LVL23:
 180 0024 0446     		mov	r4, r0
 181 0026 FFF7FEFF 		bl	PSOC_FPGA_Read
 182              	.LVL24:
 183 002a 8442     		cmp	r4, r0
 184 002c F8D1     		bne	.L10
  33:main.c        ****         }
 185              		.loc 1 33 0
 186 002e FFF7FEFF 		bl	send_next_byte
 187              	.LVL25:
 188 0032 F5E7     		b	.L10
 189              		.cfi_endproc
 190              	.LFE63:
 191              		.size	main, .-main
 192              		.global	total_entries
 193              		.global	data_index
 194              		.global	merged_ram
 195              		.section	.rodata
 196              		.align	2
 197              		.set	.LANCHOR2,. + 0
 198              		.type	merged_ram, %object
 199              		.size	merged_ram, 144
 200              	merged_ram:
 201 0000 0000     		.short	0
 202 0002 00       		.byte	0
 203 0003 00       		.byte	0
 204 0004 00       		.byte	0
 205 0005 00       		.byte	0
 206 0006 0100     		.short	1
 207 0008 00       		.byte	0
 208 0009 00       		.byte	0
 209 000a 00       		.byte	0
 210 000b 00       		.byte	0
 211 000c 0200     		.short	2
 212 000e 00       		.byte	0
 213 000f 00       		.byte	0
 214 0010 00       		.byte	0
 215 0011 00       		.byte	0
 216 0012 0300     		.short	3
ARM GAS  C:\Users\impler\AppData\Local\Temp\ccMkb5iX.s 			page 6


 217 0014 00       		.byte	0
 218 0015 00       		.byte	0
 219 0016 00       		.byte	0
 220 0017 00       		.byte	0
 221 0018 0400     		.short	4
 222 001a 00       		.byte	0
 223 001b 00       		.byte	0
 224 001c 00       		.byte	0
 225 001d 00       		.byte	0
 226 001e 0500     		.short	5
 227 0020 00       		.byte	0
 228 0021 00       		.byte	0
 229 0022 00       		.byte	0
 230 0023 00       		.byte	0
 231 0024 0600     		.short	6
 232 0026 00       		.byte	0
 233 0027 00       		.byte	0
 234 0028 00       		.byte	0
 235 0029 00       		.byte	0
 236 002a 0700     		.short	7
 237 002c 00       		.byte	0
 238 002d 00       		.byte	0
 239 002e 00       		.byte	0
 240 002f 00       		.byte	0
 241 0030 0800     		.short	8
 242 0032 00       		.byte	0
 243 0033 00       		.byte	0
 244 0034 00       		.byte	0
 245 0035 00       		.byte	0
 246 0036 0900     		.short	9
 247 0038 00       		.byte	0
 248 0039 00       		.byte	0
 249 003a 00       		.byte	0
 250 003b 00       		.byte	0
 251 003c 0040     		.short	16384
 252 003e 00       		.byte	0
 253 003f 00       		.byte	0
 254 0040 00       		.byte	0
 255 0041 00       		.byte	0
 256 0042 1000     		.short	16
 257 0044 00       		.byte	0
 258 0045 00       		.byte	0
 259 0046 00       		.byte	0
 260 0047 00       		.byte	0
 261 0048 1100     		.short	17
 262 004a 40       		.byte	64
 263 004b 84       		.byte	-124
 264 004c 00       		.byte	0
 265 004d 00       		.byte	0
 266 004e 1200     		.short	18
 267 0050 00       		.byte	0
 268 0051 00       		.byte	0
 269 0052 00       		.byte	0
 270 0053 00       		.byte	0
 271 0054 1300     		.short	19
 272 0056 40       		.byte	64
 273 0057 76       		.byte	118
ARM GAS  C:\Users\impler\AppData\Local\Temp\ccMkb5iX.s 			page 7


 274 0058 80       		.byte	-128
 275 0059 00       		.byte	0
 276 005a 1400     		.short	20
 277 005c 00       		.byte	0
 278 005d 00       		.byte	0
 279 005e 00       		.byte	0
 280 005f 00       		.byte	0
 281 0060 1500     		.short	21
 282 0062 40       		.byte	64
 283 0063 08       		.byte	8
 284 0064 00       		.byte	0
 285 0065 00       		.byte	0
 286 0066 1600     		.short	22
 287 0068 00       		.byte	0
 288 0069 00       		.byte	0
 289 006a 00       		.byte	0
 290 006b 00       		.byte	0
 291 006c 1700     		.short	23
 292 006e 40       		.byte	64
 293 006f 08       		.byte	8
 294 0070 00       		.byte	0
 295 0071 00       		.byte	0
 296 0072 1800     		.short	24
 297 0074 00       		.byte	0
 298 0075 00       		.byte	0
 299 0076 00       		.byte	0
 300 0077 00       		.byte	0
 301 0078 1900     		.short	25
 302 007a 00       		.byte	0
 303 007b 00       		.byte	0
 304 007c 00       		.byte	0
 305 007d 00       		.byte	0
 306 007e 0140     		.short	16385
 307 0080 00       		.byte	0
 308 0081 10       		.byte	16
 309 0082 04       		.byte	4
 310 0083 06       		.byte	6
 311 0084 0080     		.short	-32768
 312 0086 00       		.byte	0
 313 0087 00       		.byte	0
 314 0088 00       		.byte	0
 315 0089 02       		.byte	2
 316 008a 0180     		.short	-32767
 317 008c 00       		.byte	0
 318 008d 00       		.byte	0
 319 008e 00       		.byte	0
 320 008f 01       		.byte	1
 321              		.data
 322              		.align	1
 323              		.set	.LANCHOR1,. + 0
 324              		.type	total_entries, %object
 325              		.size	total_entries, 2
 326              	total_entries:
 327 0000 1800     		.short	24
 328              		.bss
 329              		.align	1
 330              		.set	.LANCHOR0,. + 0
ARM GAS  C:\Users\impler\AppData\Local\Temp\ccMkb5iX.s 			page 8


 331              		.type	data_index, %object
 332              		.size	data_index, 2
 333              	data_index:
 334 0000 0000     		.space	2
 335              		.text
 336              	.Letext0:
 337              		.file 2 "c:\\program files (x86)\\cypress\\psoc creator\\4.4\\psoc creator\\import\\gnu\\arm\\5.4.
 338              		.file 3 "c:\\program files (x86)\\cypress\\psoc creator\\4.4\\psoc creator\\import\\gnu\\arm\\5.4.
 339              		.file 4 "outfile.h"
 340              		.file 5 "Generated_Source\\PSoC5/core_cm3.h"
 341              		.file 6 "Generated_Source\\PSoC5/Data_Port.h"
 342              		.file 7 "Generated_Source\\PSoC5/PSOC_FPGA.h"
 343              		.file 8 "Generated_Source\\PSoC5/SOFT_RESET.h"
 344              		.file 9 "Generated_Source\\PSoC5/CyLib.h"
 345              		.file 10 "Generated_Source\\PSoC5/FPGA_PSOC.h"